; Function Attrs: nounwind uwtable
define internal void @_timeout_handler(ptr noundef %0) #0 {
  %2 = getelementptr inbounds nuw i8, ptr %0, i64 24
  %3 = load i64, ptr %2, align 8
  %4 = load i64, ptr @last_timeout, align 8
  %.not = icmp eq i64 %3, %4
  br i1 %.not, label %10, label %5

5:                                                ; preds = %1
  store i64 %3, ptr @last_timeout, align 8
  %6 = tail call i32 @get_log_level() #13
  %7 = icmp sgt i32 %6, 3
  br i1 %7, label %8, label %10

8:                                                ; preds = %5
  %9 = tail call ptr @slurm_ctime2(ptr noundef nonnull %2) #13
  tail call void (i32, ptr, ...) @log_var(i32 noundef 4, ptr noundef nonnull @.str.68, ptr noundef %9) #13
  br label %10

10:                                               ; preds = %5, %8, %1
  ret void
}